target datalayout = "e-m:e-p270:32:32-p271:32:32-p272:64:64-i64:64-i128:128-f80:128-n8:16:32:64-S128"
target triple = "x86_64-pc-linux-gnu"

%"struct.faiss::OnDiskInvertedLists" = type <{ %"struct.faiss::InvertedLists.base", [7 x i8], %"class.std::vector.5", %"class.std::__cxx11::list", %"class.std::__cxx11::basic_string", i64, ptr, i8, [7 x i8], ptr, ptr, i32, [4 x i8] }>
%"struct.faiss::InvertedLists.base" = type <{ ptr, i64, i64, i8 }>
%"class.std::vector.5" = type { %"struct.std::_Vector_base.6" }
%"struct.std::_Vector_base.6" = type { %"struct.std::_Vector_base<faiss::OnDiskOneList, std::allocator<faiss::OnDiskOneList>>::_Vector_impl" }
%"struct.std::_Vector_base<faiss::OnDiskOneList, std::allocator<faiss::OnDiskOneList>>::_Vector_impl" = type { %"struct.std::_Vector_base<faiss::OnDiskOneList, std::allocator<faiss::OnDiskOneList>>::_Vector_impl_data" }
%"struct.std::_Vector_base<faiss::OnDiskOneList, std::allocator<faiss::OnDiskOneList>>::_Vector_impl_data" = type { ptr, ptr, ptr }
%"class.std::__cxx11::list" = type { %"class.std::__cxx11::_List_base" }
%"class.std::__cxx11::_List_base" = type { %"struct.std::__cxx11::_List_base<faiss::OnDiskInvertedLists::Slot, std::allocator<faiss::OnDiskInvertedLists::Slot>>::_List_impl" }
%"struct.std::__cxx11::_List_base<faiss::OnDiskInvertedLists::Slot, std::allocator<faiss::OnDiskInvertedLists::Slot>>::_List_impl" = type { %"struct.std::__detail::_List_node_header" }
%"struct.std::__detail::_List_node_header" = type { %"struct.std::__detail::_List_node_base", i64 }
%"struct.std::__detail::_List_node_base" = type { ptr, ptr }
%"class.std::__cxx11::basic_string" = type { %"struct.std::__cxx11::basic_string<char>::_Alloc_hider", i64, %union.anon }
%"struct.std::__cxx11::basic_string<char>::_Alloc_hider" = type { ptr }
%union.anon = type { i64, [8 x i8] }
%union.pthread_mutex_t = type { %struct.__pthread_mutex_s }
%struct.__pthread_mutex_s = type { i32, i32, i32, i32, i32, i16, i16, %struct.__pthread_internal_list }
%struct.__pthread_internal_list = type { ptr, ptr }
%"struct.faiss::LockLevels" = type <{ %union.pthread_mutex_t, %union.pthread_cond_t, %union.pthread_cond_t, %union.pthread_cond_t, %"class.std::unordered_set", i32, i8, i8, [2 x i8] }>
%union.pthread_cond_t = type { %struct.__pthread_cond_s }
%struct.__pthread_cond_s = type { %union.__atomic_wide_counter, %union.__atomic_wide_counter, [2 x i32], [2 x i32], i32, i32, [2 x i32] }
%union.__atomic_wide_counter = type { i64 }
%"class.std::unordered_set" = type { %"class.std::_Hashtable" }
%"class.std::_Hashtable" = type { ptr, i64, %"struct.std::__detail::_Hash_node_base", i64, %"struct.std::__detail::_Prime_rehash_policy", ptr }
%"struct.std::__detail::_Hash_node_base" = type { ptr }
%"struct.std::__detail::_Prime_rehash_policy" = type { float, i64 }

@.str.6 = private unnamed_addr constant [128 x i8] c"generated/home/dtcxzyw/WorkSpace/Projects/compilers/llvm-opt-benchmark/bench/faiss/faiss/faiss/invlists/OnDiskInvertedLists.cpp\00", align 1
@_ZTIN5faiss14FaissExceptionE = external constant ptr
@.str.18 = private unnamed_addr constant [19 x i8] c"Error: '%s' failed\00", align 1
@.str.19 = private unnamed_addr constant [11 x i8] c"!read_only\00", align 1
@__PRETTY_FUNCTION__._ZN5faiss19OnDiskInvertedLists11add_entriesEmmPKlPKh = private unnamed_addr constant [103 x i8] c"virtual size_t faiss::OnDiskInvertedLists::add_entries(size_t, size_t, const idx_t *, const uint8_t *)\00", align 1

; Function Attrs: mustprogress uwtable
define linkonce_odr noundef i64 @_ZNSt10_HashtableIiiSaIiENSt8__detail9_IdentityESt8equal_toIiESt4hashIiENS1_18_Mod_range_hashingENS1_20_Default_ranged_hashENS1_20_Prime_rehash_policyENS1_17_Hashtable_traitsILb0ELb1ELb1EEEE5eraseERKi(ptr noundef nonnull align 8 dereferenceable(56) %0, ptr noundef nonnull align 4 dereferenceable(4) %1) #2 comdat align 2 {
  %3 = alloca ptr, align 8
  %4 = alloca ptr, align 8
  store ptr %0, ptr %3, align 8
  store ptr %1, ptr %4, align 8
  %5 = load ptr, ptr %3, align 8
  %6 = load ptr, ptr %4, align 8
  %7 = call noundef i64 @_ZNSt10_HashtableIiiSaIiENSt8__detail9_IdentityESt8equal_toIiESt4hashIiENS1_18_Mod_range_hashingENS1_20_Default_ranged_hashENS1_20_Prime_rehash_policyENS1_17_Hashtable_traitsILb0ELb1ELb1EEEE8_M_eraseESt17integral_constantIbLb1EERKi(ptr noundef nonnull align 8 dereferenceable(56) %5, ptr noundef nonnull align 4 dereferenceable(4) %6)
  ret i64 %7
}

; Function Attrs: mustprogress uwtable
define linkonce_odr noundef i64 @_ZNSt13unordered_setIiSt4hashIiESt8equal_toIiESaIiEE5eraseERKi(ptr noundef nonnull align 8 dereferenceable(56) %0, ptr noundef nonnull align 4 dereferenceable(4) %1) #2 comdat align 2 {
  %3 = alloca ptr, align 8
  %4 = alloca ptr, align 8
  store ptr %0, ptr %3, align 8
  store ptr %1, ptr %4, align 8
  %5 = load ptr, ptr %3, align 8
  %6 = getelementptr inbounds %"class.std::unordered_set", ptr %5, i32 0, i32 0
  %7 = load ptr, ptr %4, align 8
  %8 = call noundef i64 @_ZNSt10_HashtableIiiSaIiENSt8__detail9_IdentityESt8equal_toIiESt4hashIiENS1_18_Mod_range_hashingENS1_20_Default_ranged_hashENS1_20_Prime_rehash_policyENS1_17_Hashtable_traitsILb0ELb1ELb1EEEE5eraseERKi(ptr noundef nonnull align 8 dereferenceable(56) %6, ptr noundef nonnull align 4 dereferenceable(4) %7)
  ret i64 %8
}

; Function Attrs: mustprogress uwtable
define linkonce_odr void @_ZN5faiss10LockLevels8unlock_1Ei(ptr noundef nonnull align 8 dereferenceable(246) %0, i32 noundef %1) #2 comdat align 2 {
  %3 = alloca ptr, align 8
  %4 = alloca i32, align 4
  store ptr %0, ptr %3, align 8
  store i32 %1, ptr %4, align 4
  %5 = load ptr, ptr %3, align 8
  %6 = getelementptr inbounds %"struct.faiss::LockLevels", ptr %5, i32 0, i32 0
  %7 = call i32 @pthread_mutex_lock(ptr noundef %6) #13
  %8 = getelementptr inbounds %"struct.faiss::LockLevels", ptr %5, i32 0, i32 4
  %9 = call noundef i64 @_ZNSt13unordered_setIiSt4hashIiESt8equal_toIiESaIiEE5eraseERKi(ptr noundef nonnull align 8 dereferenceable(56) %8, ptr noundef nonnull align 4 dereferenceable(4) %4)
  %10 = getelementptr inbounds %"struct.faiss::LockLevels", ptr %5, i32 0, i32 6
  %11 = load i8, ptr %10, align 4
  %12 = trunc i8 %11 to i1
  br i1 %12, label %13, label %16

13:                                               ; preds = %2
  %14 = getelementptr inbounds %"struct.faiss::LockLevels", ptr %5, i32 0, i32 3
  %15 = call i32 @pthread_cond_signal(ptr noundef %14) #13
  br label %19

16:                                               ; preds = %2
  %17 = getelementptr inbounds %"struct.faiss::LockLevels", ptr %5, i32 0, i32 1
  %18 = call i32 @pthread_cond_broadcast(ptr noundef %17) #13
  br label %19

19:                                               ; preds = %16, %13
  %20 = getelementptr inbounds %"struct.faiss::LockLevels", ptr %5, i32 0, i32 0
  %21 = call i32 @pthread_mutex_unlock(ptr noundef %20) #13
  ret void
}

; Function Attrs: mustprogress uwtable
define noundef i64 @_ZN5faiss19OnDiskInvertedLists11add_entriesEmmPKlPKh(ptr noundef nonnull align 8 dereferenceable(156) %0, i64 noundef %1, i64 noundef %2, ptr noundef %3, ptr noundef %4) unnamed_addr #2 align 2 personality ptr @__gxx_personality_v0 {
  %6 = alloca ptr, align 8
  %7 = alloca i64, align 8
  %8 = alloca i64, align 8
  %9 = alloca ptr, align 8
  %10 = alloca ptr, align 8
  %11 = alloca %"class.std::__cxx11::basic_string", align 8
  %12 = alloca i32, align 4
  %13 = alloca ptr, align 8
  %14 = alloca i32, align 4
  %15 = alloca i64, align 8
  store ptr %0, ptr %6, align 8
  store i64 %1, ptr %7, align 8
  store i64 %2, ptr %8, align 8
  store ptr %3, ptr %9, align 8
  store ptr %4, ptr %10, align 8
  %16 = load ptr, ptr %6, align 8
  br label %17

17:                                               ; preds = %5
  %18 = getelementptr inbounds %"struct.faiss::OnDiskInvertedLists", ptr %16, i32 0, i32 7
  %19 = load i8, ptr %18, align 8
  %20 = trunc i8 %19 to i1
  br i1 %20, label %21, label %44

21:                                               ; preds = %17
  br label %22

22:                                               ; preds = %21
  call void @_ZNSt7__cxx1112basic_stringIcSt11char_traitsIcESaIcEEC1Ev(ptr noundef nonnull align 8 dereferenceable(32) %11) #13
  %23 = call i32 (ptr, i64, ptr, ...) @snprintf(ptr noundef null, i64 noundef 0, ptr noundef @.str.18, ptr noundef @.str.19) #13
  store i32 %23, ptr %12, align 4
  %24 = load i32, ptr %12, align 4
  %25 = add nsw i32 %24, 1
  %26 = sext i32 %25 to i64
  invoke void @_ZNSt7__cxx1112basic_stringIcSt11char_traitsIcESaIcEE6resizeEm(ptr noundef nonnull align 8 dereferenceable(32) %11, i64 noundef %26)
          to label %27 unwind label %34

27:                                               ; preds = %22
  %28 = invoke noundef nonnull align 1 dereferenceable(1) ptr @_ZNSt7__cxx1112basic_stringIcSt11char_traitsIcESaIcEEixEm(ptr noundef nonnull align 8 dereferenceable(32) %11, i64 noundef 0)
          to label %29 unwind label %34

29:                                               ; preds = %27
  %30 = call noundef i64 @_ZNKSt7__cxx1112basic_stringIcSt11char_traitsIcESaIcEE4sizeEv(ptr noundef nonnull align 8 dereferenceable(32) %11) #13
  %31 = call i32 (ptr, i64, ptr, ...) @snprintf(ptr noundef %28, i64 noundef %30, ptr noundef @.str.18, ptr noundef @.str.19) #13
  %32 = call ptr @__cxa_allocate_exception(i64 40) #13
  invoke void @_ZN5faiss14FaissExceptionC1ERKNSt7__cxx1112basic_stringIcSt11char_traitsIcESaIcEEEPKcSA_i(ptr noundef nonnull align 8 dereferenceable(40) %32, ptr noundef nonnull align 8 dereferenceable(32) %11, ptr noundef @__PRETTY_FUNCTION__._ZN5faiss19OnDiskInvertedLists11add_entriesEmmPKlPKh, ptr noundef @.str.6, i32 noundef 423)
          to label %33 unwind label %38

33:                                               ; preds = %29
  invoke void @__cxa_throw(ptr %32, ptr @_ZTIN5faiss14FaissExceptionE, ptr @_ZN5faiss14FaissExceptionD2Ev) #19
          to label %77 unwind label %34

34:                                               ; preds = %33, %27, %22
  %35 = landingpad { ptr, i32 }
          cleanup
  %36 = extractvalue { ptr, i32 } %35, 0
  store ptr %36, ptr %13, align 8
  %37 = extractvalue { ptr, i32 } %35, 1
  store i32 %37, ptr %14, align 4
  br label %42

38:                                               ; preds = %29
  %39 = landingpad { ptr, i32 }
          cleanup
  %40 = extractvalue { ptr, i32 } %39, 0
  store ptr %40, ptr %13, align 8
  %41 = extractvalue { ptr, i32 } %39, 1
  store i32 %41, ptr %14, align 4
  call void @__cxa_free_exception(ptr %32) #13
  br label %42

42:                                               ; preds = %38, %34
  call void @_ZNSt7__cxx1112basic_stringIcSt11char_traitsIcESaIcEED1Ev(ptr noundef nonnull align 8 dereferenceable(32) %11) #13
  br label %72

43:                                               ; No predecessors!
  br label %44

44:                                               ; preds = %43, %17
  br label %45

45:                                               ; preds = %44
  %46 = getelementptr inbounds %"struct.faiss::OnDiskInvertedLists", ptr %16, i32 0, i32 9
  %47 = load ptr, ptr %46, align 8
  %48 = load i64, ptr %7, align 8
  %49 = trunc i64 %48 to i32
  call void @_ZN5faiss10LockLevels6lock_1Ei(ptr noundef nonnull align 8 dereferenceable(246) %47, i32 noundef %49)
  %50 = load i64, ptr %7, align 8
  %51 = load ptr, ptr %16, align 8
  %52 = getelementptr inbounds ptr, ptr %51, i64 2
  %53 = load ptr, ptr %52, align 8
  %54 = call noundef i64 %53(ptr noundef nonnull align 8 dereferenceable(156) %16, i64 noundef %50)
  store i64 %54, ptr %15, align 8
  %55 = load i64, ptr %7, align 8
  %56 = load i64, ptr %8, align 8
  %57 = load i64, ptr %15, align 8
  %58 = add i64 %56, %57
  call void @_ZN5faiss19OnDiskInvertedLists13resize_lockedEmm(ptr noundef nonnull align 8 dereferenceable(156) %16, i64 noundef %55, i64 noundef %58)
  %59 = load i64, ptr %7, align 8
  %60 = load i64, ptr %15, align 8
  %61 = load i64, ptr %8, align 8
  %62 = load ptr, ptr %9, align 8
  %63 = load ptr, ptr %10, align 8
  %64 = load ptr, ptr %16, align 8
  %65 = getelementptr inbounds ptr, ptr %64, i64 14
  %66 = load ptr, ptr %65, align 8
  call void %66(ptr noundef nonnull align 8 dereferenceable(156) %16, i64 noundef %59, i64 noundef %60, i64 noundef %61, ptr noundef %62, ptr noundef %63)
  %67 = getelementptr inbounds %"struct.faiss::OnDiskInvertedLists", ptr %16, i32 0, i32 9
  %68 = load ptr, ptr %67, align 8
  %69 = load i64, ptr %7, align 8
  %70 = trunc i64 %69 to i32
  call void @_ZN5faiss10LockLevels8unlock_1Ei(ptr noundef nonnull align 8 dereferenceable(246) %68, i32 noundef %70)
  %71 = load i64, ptr %15, align 8
  ret i64 %71

72:                                               ; preds = %42
  %73 = load ptr, ptr %13, align 8
  %74 = load i32, ptr %14, align 4
  %75 = insertvalue { ptr, i32 } poison, ptr %73, 0
  %76 = insertvalue { ptr, i32 } %75, i32 %74, 1
  resume { ptr, i32 } %76

77:                                               ; preds = %33
  unreachable
}