; Function Attrs: mustprogress uwtable
define noundef i64 @_ZN5faiss19OnDiskInvertedLists11add_entriesEmmPKlPKh(ptr noundef nonnull align 8 dereferenceable(156) %0, i64 noundef %1, i64 noundef %2, ptr noundef %3, ptr noundef %4) unnamed_addr #3 align 2 personality ptr @__gxx_personality_v0 {
  %6 = alloca i32, align 4
  %7 = alloca %"class.std::__cxx11::basic_string", align 8
  %8 = getelementptr inbounds i8, ptr %0, i64 128
  %9 = load i8, ptr %8, align 8
  %10 = and i8 %9, 1
  %.not = icmp eq i8 %10, 0
  br i1 %.not, label %27, label %11

11:                                               ; preds = %5
  call void @_ZNSt7__cxx1112basic_stringIcSt11char_traitsIcESaIcEEC1Ev(ptr noundef nonnull align 8 dereferenceable(32) %7) #16
  %12 = call i32 (ptr, i64, ptr, ...) @snprintf(ptr noundef null, i64 noundef 0, ptr noundef nonnull @.str.18, ptr noundef nonnull @.str.19) #16
  %13 = add nsw i32 %12, 1
  %14 = sext i32 %13 to i64
  invoke void @_ZNSt7__cxx1112basic_stringIcSt11char_traitsIcESaIcEE6resizeEm(ptr noundef nonnull align 8 dereferenceable(32) %7, i64 noundef %14)
          to label %15 unwind label %22

15:                                               ; preds = %11
  %16 = invoke noundef nonnull align 1 dereferenceable(1) ptr @_ZNSt7__cxx1112basic_stringIcSt11char_traitsIcESaIcEEixEm(ptr noundef nonnull align 8 dereferenceable(32) %7, i64 noundef 0)
          to label %17 unwind label %22

17:                                               ; preds = %15
  %18 = call noundef i64 @_ZNKSt7__cxx1112basic_stringIcSt11char_traitsIcESaIcEE4sizeEv(ptr noundef nonnull align 8 dereferenceable(32) %7) #16
  %19 = call i32 (ptr, i64, ptr, ...) @snprintf(ptr noundef nonnull %16, i64 noundef %18, ptr noundef nonnull @.str.18, ptr noundef nonnull @.str.19) #16
  %20 = call ptr @__cxa_allocate_exception(i64 40) #16
  invoke void @_ZN5faiss14FaissExceptionC1ERKNSt7__cxx1112basic_stringIcSt11char_traitsIcESaIcEEEPKcSA_i(ptr noundef nonnull align 8 dereferenceable(40) %20, ptr noundef nonnull align 8 dereferenceable(32) %7, ptr noundef nonnull @__PRETTY_FUNCTION__._ZN5faiss19OnDiskInvertedLists11add_entriesEmmPKlPKh, ptr noundef nonnull @.str.6, i32 noundef 423)
          to label %21 unwind label %24

21:                                               ; preds = %17
  invoke void @__cxa_throw(ptr nonnull %20, ptr nonnull @_ZTIN5faiss14FaissExceptionE, ptr nonnull @_ZN5faiss14FaissExceptionD2Ev) #25
          to label %53 unwind label %22

22:                                               ; preds = %21, %15, %11
  %23 = landingpad { ptr, i32 }
          cleanup
  br label %26

24:                                               ; preds = %17
  %25 = landingpad { ptr, i32 }
          cleanup
  call void @__cxa_free_exception(ptr %20) #16
  br label %26

26:                                               ; preds = %24, %22
  %.pn = phi { ptr, i32 } [ %23, %22 ], [ %25, %24 ]
  call void @_ZNSt7__cxx1112basic_stringIcSt11char_traitsIcESaIcEED1Ev(ptr noundef nonnull align 8 dereferenceable(32) %7) #16
  resume { ptr, i32 } %.pn

27:                                               ; preds = %5
  %28 = getelementptr inbounds i8, ptr %0, i64 136
  %29 = load ptr, ptr %28, align 8
  %30 = trunc i64 %1 to i32
  tail call void @_ZN5faiss10LockLevels6lock_1Ei(ptr noundef nonnull align 8 dereferenceable(246) %29, i32 noundef %30)
  %31 = load ptr, ptr %0, align 8
  %32 = getelementptr inbounds i8, ptr %31, i64 16
  %33 = load ptr, ptr %32, align 8
  %34 = tail call noundef i64 %33(ptr noundef nonnull align 8 dereferenceable(156) %0, i64 noundef %1)
  %35 = add i64 %34, %2
  tail call void @_ZN5faiss19OnDiskInvertedLists13resize_lockedEmm(ptr noundef nonnull align 8 dereferenceable(156) %0, i64 noundef %1, i64 noundef %35)
  %36 = load ptr, ptr %0, align 8
  %37 = getelementptr inbounds i8, ptr %36, i64 112
  %38 = load ptr, ptr %37, align 8
  tail call void %38(ptr noundef nonnull align 8 dereferenceable(156) %0, i64 noundef %1, i64 noundef %34, i64 noundef %2, ptr noundef %3, ptr noundef %4)
  %39 = load ptr, ptr %28, align 8
  call void @llvm.lifetime.start.p0(i64 4, ptr nonnull %6)
  store i32 %30, ptr %6, align 4
  %40 = tail call i32 @pthread_mutex_lock(ptr noundef nonnull %39) #16
  %41 = getelementptr inbounds i8, ptr %39, i64 184
  %42 = call noundef i64 @_ZNSt10_HashtableIiiSaIiENSt8__detail9_IdentityESt8equal_toIiESt4hashIiENS1_18_Mod_range_hashingENS1_20_Default_ranged_hashENS1_20_Prime_rehash_policyENS1_17_Hashtable_traitsILb0ELb1ELb1EEEE8_M_eraseESt17integral_constantIbLb1EERKi(ptr noundef nonnull align 8 dereferenceable(56) %41, ptr noundef nonnull align 4 dereferenceable(4) %6)
  %43 = getelementptr inbounds i8, ptr %39, i64 244
  %44 = load i8, ptr %43, align 4
  %45 = and i8 %44, 1
  %.not.i = icmp eq i8 %45, 0
  br i1 %.not.i, label %49, label %46

46:                                               ; preds = %27
  %47 = getelementptr inbounds i8, ptr %39, i64 136
  %48 = call i32 @pthread_cond_signal(ptr noundef nonnull %47) #16
  br label %_ZN5faiss10LockLevels8unlock_1Ei.exit

49:                                               ; preds = %27
  %50 = getelementptr inbounds i8, ptr %39, i64 40
  %51 = call i32 @pthread_cond_broadcast(ptr noundef nonnull %50) #16
  br label %_ZN5faiss10LockLevels8unlock_1Ei.exit

_ZN5faiss10LockLevels8unlock_1Ei.exit:            ; preds = %46, %49
  %52 = call i32 @pthread_mutex_unlock(ptr noundef nonnull %39) #16
  call void @llvm.lifetime.end.p0(i64 4, ptr nonnull %6)
  ret i64 %34

53:                                               ; preds = %21
  unreachable
}